target datalayout = "e-m:e-p270:32:32-p271:32:32-p272:64:64-i64:64-i128:128-f80:128-n8:16:32:64-S128"
target triple = "x86_64-pc-linux-gnu"

@gcp_msgs = internal global ptr null, align 8
@gcp_trxs = internal global ptr null, align 8
@gcp_ctxs_by_trx = internal global ptr null, align 8
@gcp_ctxs = internal global ptr null, align 8
@.str.48 = private unnamed_addr constant [15 x i8] c"h248.magic_num\00", align 1
@.str.725 = private unnamed_addr constant [13 x i8] c"H.248 MEGACO\00", align 1
@.str.726 = private unnamed_addr constant [6 x i8] c"H.248\00", align 1
@.str.727 = private unnamed_addr constant [5 x i8] c"h248\00", align 1
@proto_h248 = internal global i32 0, align 4
@h248_handle = internal global ptr null, align 8
@.str.728 = private unnamed_addr constant [10 x i8] c"h248.tpkt\00", align 1
@h248_tpkt_handle = internal global ptr null, align 8
@.str.729 = private unnamed_addr constant [16 x i8] c"H.248 Magic Num\00", align 1
@subdissector_table = internal global ptr null, align 8
@.str.730 = private unnamed_addr constant [9 x i8] c"ctx_info\00", align 1
@.str.731 = private unnamed_addr constant [14 x i8] c"Track Context\00", align 1
@.str.732 = private unnamed_addr constant [104 x i8] c"Maintain relationships between transactions and contexts and display an extra tree showing context data\00", align 1
@keep_persistent_data = internal global i32 0, align 4
@.str.733 = private unnamed_addr constant [10 x i8] c"desegment\00", align 1
@.str.734 = private unnamed_addr constant [25 x i8] c"Desegment H.248 over TCP\00", align 1
@.str.735 = private unnamed_addr constant [53 x i8] c"Desegment H.248 messages that span more TCP segments\00", align 1
@h248_desegment = internal global i32 1, align 4
@h248_tap = internal global i32 0, align 4

; Function Attrs: nounwind uwtable
define hidden void @proto_register_h248() #0 {
  %1 = alloca ptr, align 8
  %2 = alloca ptr, align 8
  %3 = call i32 @proto_register_protocol(ptr noundef @.str.725, ptr noundef @.str.726, ptr noundef @.str.727)
  store i32 %3, ptr @proto_h248, align 4
  %4 = load i32, ptr @proto_h248, align 4
  %5 = call ptr @register_dissector(ptr noundef @.str.727, ptr noundef @dissect_h248, i32 noundef %4)
  store ptr %5, ptr @h248_handle, align 8
  %6 = load i32, ptr @proto_h248, align 4
  %7 = call ptr @register_dissector(ptr noundef @.str.728, ptr noundef @dissect_h248_tpkt, i32 noundef %6)
  store ptr %7, ptr @h248_tpkt_handle, align 8
  %8 = load i32, ptr @proto_h248, align 4
  call void @proto_register_field_array(i32 noundef %8, ptr noundef @proto_register_h248.hf, i32 noundef 341)
  call void @proto_register_subtree_array(ptr noundef @proto_register_h248.ett, i32 noundef 155)
  %9 = load i32, ptr @proto_h248, align 4
  %10 = call ptr @expert_register_protocol(i32 noundef %9)
  store ptr %10, ptr %1, align 8
  %11 = load ptr, ptr %1, align 8
  call void @expert_register_field_array(ptr noundef %11, ptr noundef @proto_register_h248.ei, i32 noundef 4)
  %12 = load i32, ptr @proto_h248, align 4
  %13 = call ptr @register_dissector_table(ptr noundef @.str.48, ptr noundef @.str.729, i32 noundef %12, i32 noundef 7, i32 noundef 2)
  store ptr %13, ptr @subdissector_table, align 8
  %14 = load i32, ptr @proto_h248, align 4
  %15 = call ptr @prefs_register_protocol(i32 noundef %14, ptr noundef null)
  store ptr %15, ptr %2, align 8
  %16 = load ptr, ptr %2, align 8
  call void @prefs_register_bool_preference(ptr noundef %16, ptr noundef @.str.730, ptr noundef @.str.731, ptr noundef @.str.732, ptr noundef @keep_persistent_data)
  %17 = load ptr, ptr %2, align 8
  call void @prefs_register_bool_preference(ptr noundef %17, ptr noundef @.str.733, ptr noundef @.str.734, ptr noundef @.str.735, ptr noundef @h248_desegment)
  %18 = call ptr @wmem_epan_scope()
  %19 = call ptr @wmem_file_scope()
  %20 = call noalias ptr @wmem_tree_new_autoreset(ptr noundef %18, ptr noundef %19)
  store ptr %20, ptr @gcp_msgs, align 8
  %21 = call ptr @wmem_epan_scope()
  %22 = call ptr @wmem_file_scope()
  %23 = call noalias ptr @wmem_tree_new_autoreset(ptr noundef %21, ptr noundef %22)
  store ptr %23, ptr @gcp_trxs, align 8
  %24 = call ptr @wmem_epan_scope()
  %25 = call ptr @wmem_file_scope()
  %26 = call noalias ptr @wmem_tree_new_autoreset(ptr noundef %24, ptr noundef %25)
  store ptr %26, ptr @gcp_ctxs_by_trx, align 8
  %27 = call ptr @wmem_epan_scope()
  %28 = call ptr @wmem_file_scope()
  %29 = call noalias ptr @wmem_tree_new_autoreset(ptr noundef %27, ptr noundef %28)
  store ptr %29, ptr @gcp_ctxs, align 8
  %30 = call i32 @register_tap(ptr noundef @.str.727)
  store i32 %30, ptr @h248_tap, align 4
  ret void
}