; Function Attrs: nounwind uwtable
define hidden void @proto_register_h248() local_unnamed_addr #0 {
  %1 = tail call i32 @proto_register_protocol(ptr noundef nonnull @.str.725, ptr noundef nonnull @.str.726, ptr noundef nonnull @.str.727) #7
  store i32 %1, ptr @proto_h248, align 4
  %2 = tail call ptr @register_dissector(ptr noundef nonnull @.str.727, ptr noundef nonnull @dissect_h248, i32 noundef %1) #7
  store ptr %2, ptr @h248_handle, align 8
  %3 = load i32, ptr @proto_h248, align 4
  %4 = tail call ptr @register_dissector(ptr noundef nonnull @.str.728, ptr noundef nonnull @dissect_h248_tpkt, i32 noundef %3) #7
  store ptr %4, ptr @h248_tpkt_handle, align 8
  %5 = load i32, ptr @proto_h248, align 4
  tail call void @proto_register_field_array(i32 noundef %5, ptr noundef nonnull @proto_register_h248.hf, i32 noundef 341) #7
  tail call void @proto_register_subtree_array(ptr noundef nonnull @proto_register_h248.ett, i32 noundef 155) #7
  %6 = load i32, ptr @proto_h248, align 4
  %7 = tail call ptr @expert_register_protocol(i32 noundef %6) #7
  tail call void @expert_register_field_array(ptr noundef %7, ptr noundef nonnull @proto_register_h248.ei, i32 noundef 4) #7
  %8 = load i32, ptr @proto_h248, align 4
  %9 = tail call ptr @register_dissector_table(ptr noundef nonnull @.str.48, ptr noundef nonnull @.str.729, i32 noundef %8, i32 noundef 7, i32 noundef 2) #7
  store ptr %9, ptr @subdissector_table, align 8
  %10 = load i32, ptr @proto_h248, align 4
  %11 = tail call ptr @prefs_register_protocol(i32 noundef %10, ptr noundef null) #7
  tail call void @prefs_register_bool_preference(ptr noundef %11, ptr noundef nonnull @.str.730, ptr noundef nonnull @.str.731, ptr noundef nonnull @.str.732, ptr noundef nonnull @keep_persistent_data) #7
  tail call void @prefs_register_bool_preference(ptr noundef %11, ptr noundef nonnull @.str.733, ptr noundef nonnull @.str.734, ptr noundef nonnull @.str.735, ptr noundef nonnull @h248_desegment) #7
  %12 = tail call ptr @wmem_epan_scope() #7
  %13 = tail call ptr @wmem_file_scope() #7
  %14 = tail call noalias ptr @wmem_tree_new_autoreset(ptr noundef %12, ptr noundef %13) #7
  store ptr %14, ptr @gcp_msgs, align 8
  %15 = tail call ptr @wmem_epan_scope() #7
  %16 = tail call ptr @wmem_file_scope() #7
  %17 = tail call noalias ptr @wmem_tree_new_autoreset(ptr noundef %15, ptr noundef %16) #7
  store ptr %17, ptr @gcp_trxs, align 8
  %18 = tail call ptr @wmem_epan_scope() #7
  %19 = tail call ptr @wmem_file_scope() #7
  %20 = tail call noalias ptr @wmem_tree_new_autoreset(ptr noundef %18, ptr noundef %19) #7
  store ptr %20, ptr @gcp_ctxs_by_trx, align 8
  %21 = tail call ptr @wmem_epan_scope() #7
  %22 = tail call ptr @wmem_file_scope() #7
  %23 = tail call noalias ptr @wmem_tree_new_autoreset(ptr noundef %21, ptr noundef %22) #7
  store ptr %23, ptr @gcp_ctxs, align 8
  %24 = tail call i32 @register_tap(ptr noundef nonnull @.str.727) #7
  store i32 %24, ptr @h248_tap, align 4
  ret void
}